target datalayout = "e-m:e-p270:32:32-p271:32:32-p272:64:64-i64:64-i128:128-f80:128-n8:16:32:64-S128"
target triple = "x86_64-pc-linux-gnu"

%struct._zend_executor_globals = type { %struct._zval_struct, %struct._zval_struct, [32 x ptr], ptr, ptr, %struct._zend_array, %struct._zend_array, ptr, i32, i8, %struct._zval_struct, i32, ptr, ptr, ptr, ptr, ptr, ptr, i64, ptr, ptr, i32, ptr, i32, i64, i32, i32, i32, i8, i8, %struct.zend_atomic_bool_s, %struct.zend_atomic_bool_s, ptr, i64, ptr, ptr, %struct._zend_array, %struct._zend_array, i32, i8, %struct._zval_struct, %struct._zval_struct, %struct._zend_stack, %struct._zend_stack, %struct._zend_stack, ptr, i32, i32, i64, ptr, ptr, ptr, %struct._zend_objects_store, %struct._zend_lazy_objects_store, ptr, ptr, ptr, [3 x %struct._zend_op], ptr, i8, i8, i64, i32, i32, ptr, [16 x %struct._HashTableIterator], ptr, %union._zend_function, %struct._zend_op, %struct._zend_array, i64, %struct.zend_get_gc_buffer, ptr, ptr, ptr, i64, i8, i32, ptr, ptr, i64, %struct._zend_call_stack, i64, i64, %struct._zend_strtod_state, [6 x ptr] }
%struct.zend_atomic_bool_s = type { i8 }
%struct._zval_struct = type { %union._zend_value, %union.anon, %union.anon.2 }
%union._zend_value = type { i64 }
%union.anon = type { i32 }
%union.anon.2 = type { i32 }
%struct._zend_stack = type { i32, i32, i32, ptr }
%struct._zend_objects_store = type { ptr, i32, i32, i32 }
%struct._zend_lazy_objects_store = type { %struct._zend_array }
%struct._HashTableIterator = type { ptr, i32, i32 }
%union._zend_function = type { %struct._zend_op_array }
%struct._zend_op_array = type { i8, [3 x i8], i32, ptr, ptr, ptr, i32, i32, ptr, ptr, ptr, ptr, i32, ptr, i32, i32, i32, ptr, ptr, ptr, ptr, ptr, i32, i32, ptr, ptr, ptr, i32, i32, i32, i32, ptr, ptr, [6 x ptr] }
%struct._zend_op = type { ptr, %union._znode_op, %union._znode_op, %union._znode_op, i32, i32, i8, i8, i8, i8 }
%union._znode_op = type { i32 }
%struct._zend_array = type { %struct._zend_refcounted_h, %union.anon.4, i32, %union.anon.6, i32, i32, i32, i32, i64, ptr }
%struct._zend_refcounted_h = type { i32, %union.anon.3 }
%union.anon.3 = type { i32 }
%union.anon.4 = type { i32 }
%union.anon.6 = type { ptr }
%struct.zend_get_gc_buffer = type { ptr, ptr, ptr }
%struct._zend_call_stack = type { ptr, i64 }
%struct._zend_strtod_state = type { [8 x ptr], ptr, ptr }
%struct._zend_compiler_globals = type { %struct._zend_stack, ptr, ptr, i32, ptr, ptr, ptr, ptr, i8, i8, i8, i8, i8, %struct._zend_llist, ptr, i8, i8, i8, i8, ptr, i32, i32, %struct._zend_oparray_context, %struct._zend_file_context, ptr, %struct._zend_array, ptr, i64, i8, i8, i8, ptr, ptr, %struct._zend_stack, ptr, i32, ptr, ptr, i64, i64, ptr, ptr, ptr, ptr, i32, ptr, i32, %struct._zend_stack }
%struct._zend_llist = type { ptr, ptr, i64, i64, ptr, i8, ptr }
%struct._zend_oparray_context = type { ptr, ptr, i32, i32, i32, i32, i32, i32, i32, ptr, ptr, ptr, i32, i8 }
%struct._zend_file_context = type { %struct._zend_declarables, ptr, i8, i8, ptr, ptr, ptr, %struct._zend_array }
%struct._zend_declarables = type { i64 }
%struct._zend_string = type { %struct._zend_refcounted_h, i64, i64, [1 x i8] }
%struct.autoload_func_info = type { ptr, ptr, ptr, ptr }
%struct.anon.7 = type { i8, [3 x i8], i32, ptr, ptr, ptr, i32, i32, ptr, ptr, ptr, ptr, i32, ptr }

@executor_globals = external global %struct._zend_executor_globals, align 8
@spl_autoload_functions = internal global ptr null, align 8
@compiler_globals = external global %struct._zend_compiler_globals, align 8

; Function Attrs: alwaysinline nounwind uwtable
define internal i32 @zend_gc_addref(ptr noundef %0) #4 {
  %2 = alloca ptr, align 8
  store ptr %0, ptr %2, align 8, !tbaa !117
  br label %3

3:                                                ; preds = %1
  br label %4

4:                                                ; preds = %3
  %5 = load ptr, ptr %2, align 8, !tbaa !117
  %6 = getelementptr inbounds nuw %struct._zend_refcounted_h, ptr %5, i32 0, i32 0
  %7 = load i32, ptr %6, align 4, !tbaa !119
  %8 = add i32 %7, 1
  store i32 %8, ptr %6, align 4, !tbaa !119
  ret i32 %8
}

; Function Attrs: alwaysinline nounwind uwtable
define internal ptr @zend_hash_find_ptr(ptr noundef %0, ptr noundef %1) #4 {
  %3 = alloca ptr, align 8
  %4 = alloca ptr, align 8
  %5 = alloca ptr, align 8
  %6 = alloca ptr, align 8
  %7 = alloca i32, align 4
  store ptr %0, ptr %4, align 8, !tbaa !52
  store ptr %1, ptr %5, align 8, !tbaa !53
  call void @llvm.lifetime.start.p0(i64 8, ptr %6) #12
  %8 = load ptr, ptr %4, align 8, !tbaa !52
  %9 = load ptr, ptr %5, align 8, !tbaa !53
  %10 = call ptr @zend_hash_find(ptr noundef %8, ptr noundef %9)
  store ptr %10, ptr %6, align 8, !tbaa !9
  %11 = load ptr, ptr %6, align 8, !tbaa !9
  %12 = icmp ne ptr %11, null
  br i1 %12, label %13, label %21

13:                                               ; preds = %2
  %14 = load ptr, ptr %6, align 8, !tbaa !9
  %15 = getelementptr inbounds nuw %struct._zval_struct, ptr %14, i32 0, i32 0
  %16 = load ptr, ptr %15, align 8, !tbaa !13
  %17 = icmp ne ptr %16, null
  call void @llvm.assume(i1 %17)
  %18 = load ptr, ptr %6, align 8, !tbaa !9
  %19 = getelementptr inbounds nuw %struct._zval_struct, ptr %18, i32 0, i32 0
  %20 = load ptr, ptr %19, align 8, !tbaa !13
  store ptr %20, ptr %3, align 8
  store i32 1, ptr %7, align 4
  br label %22

21:                                               ; preds = %2
  store ptr null, ptr %3, align 8
  store i32 1, ptr %7, align 4
  br label %22

22:                                               ; preds = %21, %13
  call void @llvm.lifetime.end.p0(i64 8, ptr %6) #12
  %23 = load ptr, ptr %3, align 8
  ret ptr %23
}

; Function Attrs: alwaysinline nounwind uwtable
define internal i32 @zend_gc_refcount(ptr noundef %0) #4 {
  %2 = alloca ptr, align 8
  store ptr %0, ptr %2, align 8, !tbaa !117
  %3 = load ptr, ptr %2, align 8, !tbaa !117
  %4 = getelementptr inbounds nuw %struct._zend_refcounted_h, ptr %3, i32 0, i32 0
  %5 = load i32, ptr %4, align 4, !tbaa !119
  ret i32 %5
}

; Function Attrs: alwaysinline nounwind uwtable
define internal i32 @zval_gc_flags(i32 noundef %0) #4 {
  %2 = alloca i32, align 4
  store i32 %0, ptr %2, align 4, !tbaa !56
  %3 = load i32, ptr %2, align 4, !tbaa !56
  %4 = lshr i32 %3, 0
  %5 = and i32 %4, 1008
  ret i32 %5
}

; Function Attrs: alwaysinline nounwind uwtable
define internal i32 @zend_string_addref(ptr noundef %0) #4 {
  %2 = alloca i32, align 4
  %3 = alloca ptr, align 8
  store ptr %0, ptr %3, align 8, !tbaa !53
  %4 = load ptr, ptr %3, align 8, !tbaa !53
  %5 = getelementptr inbounds nuw %struct._zend_string, ptr %4, i32 0, i32 0
  %6 = getelementptr inbounds nuw %struct._zend_refcounted_h, ptr %5, i32 0, i32 1
  %7 = load i32, ptr %6, align 4, !tbaa !13
  %8 = call i32 @zval_gc_flags(i32 noundef %7)
  %9 = and i32 %8, 64
  %10 = icmp ne i32 %9, 0
  br i1 %10, label %15, label %11

11:                                               ; preds = %1
  %12 = load ptr, ptr %3, align 8, !tbaa !53
  %13 = getelementptr inbounds nuw %struct._zend_string, ptr %12, i32 0, i32 0
  %14 = call i32 @zend_gc_addref(ptr noundef %13)
  store i32 %14, ptr %2, align 4
  br label %16

15:                                               ; preds = %1
  store i32 1, ptr %2, align 4
  br label %16

16:                                               ; preds = %15, %11
  %17 = load i32, ptr %2, align 4
  ret i32 %17
}

; Function Attrs: alwaysinline nounwind uwtable
define internal ptr @zend_hash_get_current_data_ptr_ex(ptr noundef %0, ptr noundef %1) #4 {
  %3 = alloca ptr, align 8
  %4 = alloca ptr, align 8
  %5 = alloca ptr, align 8
  %6 = alloca ptr, align 8
  %7 = alloca i32, align 4
  store ptr %0, ptr %4, align 8, !tbaa !52
  store ptr %1, ptr %5, align 8, !tbaa !125
  call void @llvm.lifetime.start.p0(i64 8, ptr %6) #12
  %8 = load ptr, ptr %4, align 8, !tbaa !52
  %9 = load ptr, ptr %5, align 8, !tbaa !125
  %10 = call ptr @zend_hash_get_current_data_ex(ptr noundef %8, ptr noundef %9)
  store ptr %10, ptr %6, align 8, !tbaa !9
  %11 = load ptr, ptr %6, align 8, !tbaa !9
  %12 = icmp ne ptr %11, null
  br i1 %12, label %13, label %21

13:                                               ; preds = %2
  %14 = load ptr, ptr %6, align 8, !tbaa !9
  %15 = getelementptr inbounds nuw %struct._zval_struct, ptr %14, i32 0, i32 0
  %16 = load ptr, ptr %15, align 8, !tbaa !13
  %17 = icmp ne ptr %16, null
  call void @llvm.assume(i1 %17)
  %18 = load ptr, ptr %6, align 8, !tbaa !9
  %19 = getelementptr inbounds nuw %struct._zval_struct, ptr %18, i32 0, i32 0
  %20 = load ptr, ptr %19, align 8, !tbaa !13
  store ptr %20, ptr %3, align 8
  store i32 1, ptr %7, align 4
  br label %22

21:                                               ; preds = %2
  store ptr null, ptr %3, align 8
  store i32 1, ptr %7, align 4
  br label %22

22:                                               ; preds = %21, %13
  call void @llvm.lifetime.end.p0(i64 8, ptr %6) #12
  %23 = load ptr, ptr %3, align 8
  ret ptr %23
}

; Function Attrs: nounwind uwtable
define internal ptr @spl_perform_autoload(ptr noundef %0, ptr noundef %1) #0 {
  %3 = alloca ptr, align 8
  %4 = alloca ptr, align 8
  %5 = alloca ptr, align 8
  %6 = alloca i32, align 4
  %7 = alloca ptr, align 8
  %8 = alloca i32, align 4
  %9 = alloca ptr, align 8
  %10 = alloca %struct._zval_struct, align 8
  %11 = alloca ptr, align 8
  %12 = alloca ptr, align 8
  %13 = alloca ptr, align 8
  store ptr %0, ptr %4, align 8, !tbaa !53
  store ptr %1, ptr %5, align 8, !tbaa !53
  %14 = load ptr, ptr @spl_autoload_functions, align 8, !tbaa !52
  %15 = icmp ne ptr %14, null
  br i1 %15, label %17, label %16

16:                                               ; preds = %2
  store ptr null, ptr %3, align 8
  br label %159

17:                                               ; preds = %2
  call void @llvm.lifetime.start.p0(i64 4, ptr %6) #12
  %18 = load ptr, ptr @spl_autoload_functions, align 8, !tbaa !52
  call void @zend_hash_internal_pointer_reset_ex(ptr noundef %18, ptr noundef %6)
  br label %19

19:                                               ; preds = %156, %17
  br label %20

20:                                               ; preds = %19
  call void @llvm.lifetime.start.p0(i64 8, ptr %7) #12
  %21 = load ptr, ptr @spl_autoload_functions, align 8, !tbaa !52
  %22 = call ptr @zend_hash_get_current_data_ptr_ex(ptr noundef %21, ptr noundef %6)
  store ptr %22, ptr %7, align 8, !tbaa !61
  %23 = load ptr, ptr %7, align 8, !tbaa !61
  %24 = icmp ne ptr %23, null
  br i1 %24, label %26, label %25

25:                                               ; preds = %20
  store i32 3, ptr %8, align 4
  br label %154

26:                                               ; preds = %20
  call void @llvm.lifetime.start.p0(i64 8, ptr %9) #12
  %27 = load ptr, ptr %7, align 8, !tbaa !61
  %28 = getelementptr inbounds nuw %struct.autoload_func_info, ptr %27, i32 0, i32 0
  %29 = load ptr, ptr %28, align 8, !tbaa !66
  store ptr %29, ptr %9, align 8, !tbaa !69
  %30 = load ptr, ptr %9, align 8, !tbaa !69
  %31 = getelementptr inbounds nuw %struct.anon.7, ptr %30, i32 0, i32 2
  %32 = load i32, ptr %31, align 4, !tbaa !13
  %33 = and i32 %32, 262144
  %34 = icmp ne i32 %33, 0
  %35 = xor i1 %34, true
  %36 = xor i1 %35, true
  %37 = zext i1 %36 to i32
  %38 = sext i32 %37 to i64
  %39 = call i64 @llvm.expect.i64(i64 %38, i64 0)
  %40 = icmp ne i64 %39, 0
  br i1 %40, label %41, label %51

41:                                               ; preds = %26
  %42 = call noalias ptr @_emalloc_256()
  store ptr %42, ptr %9, align 8, !tbaa !69
  %43 = load ptr, ptr %9, align 8, !tbaa !69
  %44 = load ptr, ptr %7, align 8, !tbaa !61
  %45 = getelementptr inbounds nuw %struct.autoload_func_info, ptr %44, i32 0, i32 0
  %46 = load ptr, ptr %45, align 8, !tbaa !66
  call void @llvm.memcpy.p0.p0.i64(ptr align 8 %43, ptr align 8 %46, i64 256, i1 false)
  %47 = load ptr, ptr %9, align 8, !tbaa !69
  %48 = getelementptr inbounds nuw %struct._zend_op_array, ptr %47, i32 0, i32 3
  %49 = load ptr, ptr %48, align 8, !tbaa !13
  %50 = call i32 @zend_string_addref(ptr noundef %49)
  br label %51

51:                                               ; preds = %41, %26
  call void @llvm.lifetime.start.p0(i64 16, ptr %10) #12
  br label %52

52:                                               ; preds = %51
  call void @llvm.lifetime.start.p0(i64 8, ptr %11) #12
  store ptr %10, ptr %11, align 8, !tbaa !9
  call void @llvm.lifetime.start.p0(i64 8, ptr %12) #12
  %53 = load ptr, ptr %4, align 8, !tbaa !53
  store ptr %53, ptr %12, align 8, !tbaa !53
  %54 = load ptr, ptr %12, align 8, !tbaa !53
  %55 = load ptr, ptr %11, align 8, !tbaa !9
  %56 = getelementptr inbounds nuw %struct._zval_struct, ptr %55, i32 0, i32 0
  store ptr %54, ptr %56, align 8, !tbaa !13
  %57 = load ptr, ptr %12, align 8, !tbaa !53
  %58 = getelementptr inbounds nuw %struct._zend_string, ptr %57, i32 0, i32 0
  %59 = getelementptr inbounds nuw %struct._zend_refcounted_h, ptr %58, i32 0, i32 1
  %60 = load i32, ptr %59, align 4, !tbaa !13
  %61 = call i32 @zval_gc_flags(i32 noundef %60)
  %62 = and i32 %61, 64
  %63 = icmp ne i32 %62, 0
  %64 = select i1 %63, i32 6, i32 262
  %65 = load ptr, ptr %11, align 8, !tbaa !9
  %66 = getelementptr inbounds nuw %struct._zval_struct, ptr %65, i32 0, i32 1
  store i32 %64, ptr %66, align 8, !tbaa !13
  call void @llvm.lifetime.end.p0(i64 8, ptr %12) #12
  call void @llvm.lifetime.end.p0(i64 8, ptr %11) #12
  br label %67

67:                                               ; preds = %52
  br label %68

68:                                               ; preds = %67
  %69 = load ptr, ptr %9, align 8, !tbaa !69
  %70 = load ptr, ptr %7, align 8, !tbaa !61
  %71 = getelementptr inbounds nuw %struct.autoload_func_info, ptr %70, i32 0, i32 1
  %72 = load ptr, ptr %71, align 8, !tbaa !70
  %73 = load ptr, ptr %7, align 8, !tbaa !61
  %74 = getelementptr inbounds nuw %struct.autoload_func_info, ptr %73, i32 0, i32 3
  %75 = load ptr, ptr %74, align 8, !tbaa !71
  call void @zend_call_known_function(ptr noundef %69, ptr noundef %72, ptr noundef %75, ptr noundef null, i32 noundef 1, ptr noundef %10, ptr noundef null)
  %76 = load ptr, ptr getelementptr inbounds nuw (%struct._zend_executor_globals, ptr @executor_globals, i32 0, i32 54), align 8, !tbaa !14
  %77 = icmp ne ptr %76, null
  br i1 %77, label %78, label %79

78:                                               ; preds = %68
  store i32 3, ptr %8, align 4
  br label %153

79:                                               ; preds = %68
  %80 = load ptr, ptr %4, align 8, !tbaa !53
  %81 = getelementptr inbounds nuw %struct._zend_string, ptr %80, i32 0, i32 0
  %82 = getelementptr inbounds nuw %struct._zend_refcounted_h, ptr %81, i32 0, i32 1
  %83 = load i32, ptr %82, align 4, !tbaa !13
  %84 = call i32 @zval_gc_flags(i32 noundef %83)
  %85 = and i32 %84, 32
  %86 = icmp ne i32 %85, 0
  br i1 %86, label %87, label %138

87:                                               ; preds = %79
  %88 = load ptr, ptr %4, align 8, !tbaa !53
  %89 = getelementptr inbounds nuw %struct._zend_string, ptr %88, i32 0, i32 0
  %90 = call i32 @zend_gc_refcount(ptr noundef %89)
  %91 = sub i32 %90, 1
  %92 = zext i32 %91 to i64
  %93 = udiv i64 %92, 8
  %94 = load i64, ptr getelementptr inbounds nuw (%struct._zend_compiler_globals, ptr @compiler_globals, i32 0, i32 39), align 8, !tbaa !72
  %95 = icmp ult i64 %93, %94
  %96 = xor i1 %95, true
  %97 = xor i1 %96, true
  %98 = zext i1 %97 to i32
  %99 = sext i32 %98 to i64
  %100 = call i64 @llvm.expect.i64(i64 %99, i64 1)
  %101 = icmp ne i64 %100, 0
  br i1 %101, label %102, label %111

102:                                              ; preds = %87
  %103 = load ptr, ptr getelementptr inbounds nuw (%struct._zend_compiler_globals, ptr @compiler_globals, i32 0, i32 37), align 8, !tbaa !85
  %104 = load ptr, ptr %4, align 8, !tbaa !53
  %105 = getelementptr inbounds nuw %struct._zend_string, ptr %104, i32 0, i32 0
  %106 = call i32 @zend_gc_refcount(ptr noundef %105)
  %107 = zext i32 %106 to i64
  %108 = getelementptr inbounds nuw i8, ptr %103, i64 %107
  %109 = load ptr, ptr %108, align 8, !tbaa !48
  %110 = icmp ne ptr %109, null
  br i1 %110, label %112, label %138

111:                                              ; preds = %87
  br i1 false, label %112, label %138

112:                                              ; preds = %111, %102
  %113 = load ptr, ptr %4, align 8, !tbaa !53
  %114 = getelementptr inbounds nuw %struct._zend_string, ptr %113, i32 0, i32 0
  %115 = call i32 @zend_gc_refcount(ptr noundef %114)
  %116 = sub i32 %115, 1
  %117 = zext i32 %116 to i64
  %118 = udiv i64 %117, 8
  %119 = load i64, ptr getelementptr inbounds nuw (%struct._zend_compiler_globals, ptr @compiler_globals, i32 0, i32 39), align 8, !tbaa !72
  %120 = icmp ult i64 %118, %119
  %121 = xor i1 %120, true
  %122 = xor i1 %121, true
  %123 = zext i1 %122 to i32
  %124 = sext i32 %123 to i64
  %125 = call i64 @llvm.expect.i64(i64 %124, i64 1)
  %126 = icmp ne i64 %125, 0
  br i1 %126, label %127, label %135

127:                                              ; preds = %112
  %128 = load ptr, ptr getelementptr inbounds nuw (%struct._zend_compiler_globals, ptr @compiler_globals, i32 0, i32 37), align 8, !tbaa !85
  %129 = load ptr, ptr %4, align 8, !tbaa !53
  %130 = getelementptr inbounds nuw %struct._zend_string, ptr %129, i32 0, i32 0
  %131 = call i32 @zend_gc_refcount(ptr noundef %130)
  %132 = zext i32 %131 to i64
  %133 = getelementptr inbounds nuw i8, ptr %128, i64 %132
  %134 = load ptr, ptr %133, align 8, !tbaa !48
  br label %136

135:                                              ; preds = %112
  br label %136

136:                                              ; preds = %135, %127
  %137 = phi ptr [ %134, %127 ], [ null, %135 ]
  store ptr %137, ptr %3, align 8
  store i32 1, ptr %8, align 4
  br label %153

138:                                              ; preds = %111, %102, %79
  call void @llvm.lifetime.start.p0(i64 8, ptr %13) #12
  %139 = load ptr, ptr getelementptr inbounds nuw (%struct._zend_executor_globals, ptr @executor_globals, i32 0, i32 13), align 8, !tbaa !54
  %140 = load ptr, ptr %5, align 8, !tbaa !53
  %141 = call ptr @zend_hash_find_ptr(ptr noundef %139, ptr noundef %140)
  store ptr %141, ptr %13, align 8, !tbaa !48
  %142 = load ptr, ptr %13, align 8, !tbaa !48
  %143 = icmp ne ptr %142, null
  br i1 %143, label %144, label %146

144:                                              ; preds = %138
  %145 = load ptr, ptr %13, align 8, !tbaa !48
  store ptr %145, ptr %3, align 8
  store i32 1, ptr %8, align 4
  br label %147

146:                                              ; preds = %138
  store i32 0, ptr %8, align 4
  br label %147

147:                                              ; preds = %146, %144
  call void @llvm.lifetime.end.p0(i64 8, ptr %13) #12
  %148 = load i32, ptr %8, align 4
  switch i32 %148, label %153 [
    i32 0, label %149
  ]

149:                                              ; preds = %147
  br label %150

150:                                              ; preds = %149
  %151 = load ptr, ptr @spl_autoload_functions, align 8, !tbaa !52
  %152 = call i32 @zend_hash_move_forward_ex(ptr noundef %151, ptr noundef %6)
  store i32 0, ptr %8, align 4
  br label %153

153:                                              ; preds = %150, %147, %136, %78
  call void @llvm.lifetime.end.p0(i64 16, ptr %10) #12
  call void @llvm.lifetime.end.p0(i64 8, ptr %9) #12
  br label %154

154:                                              ; preds = %153, %25
  call void @llvm.lifetime.end.p0(i64 8, ptr %7) #12
  %155 = load i32, ptr %8, align 4
  switch i32 %155, label %158 [
    i32 0, label %156
    i32 3, label %157
  ]

156:                                              ; preds = %154
  br label %19

157:                                              ; preds = %154
  store ptr null, ptr %3, align 8
  store i32 1, ptr %8, align 4
  br label %158

158:                                              ; preds = %157, %154
  call void @llvm.lifetime.end.p0(i64 4, ptr %6) #12
  br label %159

159:                                              ; preds = %158, %16
  %160 = load ptr, ptr %3, align 8
  ret ptr %160
}