; Function Attrs: nounwind uwtable
define internal ptr @spl_perform_autoload(ptr noundef %0, ptr noundef %1) #0 {
  %3 = alloca i32, align 4
  %4 = alloca %struct._zval_struct, align 8
  %5 = load ptr, ptr @spl_autoload_functions, align 8, !tbaa !62
  %.not = icmp eq ptr %5, null
  br i1 %.not, label %61, label %6

6:                                                ; preds = %2
  call void @llvm.lifetime.start.p0(i64 4, ptr nonnull %3) #10
  call void @zend_hash_internal_pointer_reset_ex(ptr noundef nonnull %5, ptr noundef nonnull %3) #10
  %7 = load ptr, ptr @spl_autoload_functions, align 8, !tbaa !62
  %8 = call ptr @zend_hash_get_current_data_ex(ptr noundef %7, ptr noundef nonnull %3) #10
  %.not.i3956 = icmp eq ptr %8, null
  br i1 %.not.i3956, label %.thread, label %.lr.ph

.lr.ph:                                           ; preds = %6
  %9 = getelementptr inbounds nuw i8, ptr %0, i64 4
  %10 = getelementptr inbounds nuw i8, ptr %4, i64 8
  br label %11

11:                                               ; preds = %.lr.ph, %56
  %12 = phi ptr [ %8, %.lr.ph ], [ %60, %56 ]
  %13 = load ptr, ptr %12, align 8, !tbaa !8, !nonnull !46, !noundef !46
  %14 = load ptr, ptr %13, align 8, !tbaa !63
  %15 = getelementptr inbounds nuw i8, ptr %14, i64 4
  %16 = load i32, ptr %15, align 4, !tbaa !8
  %17 = and i32 %16, 262144
  %.not31 = icmp eq i32 %17, 0
  br i1 %.not31, label %zend_string_addref.exit, label %18, !prof !52

18:                                               ; preds = %11
  %19 = call noalias ptr @_emalloc_256() #10
  %20 = load ptr, ptr %13, align 8, !tbaa !63
  call void @llvm.memcpy.p0.p0.i64(ptr noundef nonnull align 8 dereferenceable(256) %19, ptr noundef nonnull align 8 dereferenceable(256) %20, i64 256, i1 false)
  %21 = getelementptr inbounds nuw i8, ptr %19, i64 8
  %22 = load ptr, ptr %21, align 8, !tbaa !8
  %23 = getelementptr inbounds nuw i8, ptr %22, i64 4
  %24 = load i32, ptr %23, align 4, !tbaa !8
  %25 = and i32 %24, 64
  %.not.i = icmp eq i32 %25, 0
  br i1 %.not.i, label %26, label %zend_string_addref.exit

26:                                               ; preds = %18
  %27 = load i32, ptr %22, align 4, !tbaa !51
  %28 = add i32 %27, 1
  store i32 %28, ptr %22, align 4, !tbaa !51
  br label %zend_string_addref.exit

zend_string_addref.exit:                          ; preds = %26, %18, %11
  %.027 = phi ptr [ %14, %11 ], [ %19, %18 ], [ %19, %26 ]
  call void @llvm.lifetime.start.p0(i64 16, ptr nonnull %4) #10
  store ptr %0, ptr %4, align 8, !tbaa !8
  %29 = load i32, ptr %9, align 4, !tbaa !8
  %30 = and i32 %29, 64
  %.not32 = icmp eq i32 %30, 0
  %31 = select i1 %.not32, i32 262, i32 6
  store i32 %31, ptr %10, align 8, !tbaa !8
  %32 = getelementptr inbounds nuw i8, ptr %13, i64 8
  %33 = load ptr, ptr %32, align 8, !tbaa !66
  %34 = getelementptr inbounds nuw i8, ptr %13, i64 24
  %35 = load ptr, ptr %34, align 8, !tbaa !67
  call void @zend_call_known_function(ptr noundef nonnull %.027, ptr noundef %33, ptr noundef %35, ptr noundef null, i32 noundef 1, ptr noundef nonnull %4, ptr noundef null) #10
  %36 = load ptr, ptr getelementptr inbounds nuw (i8, ptr @executor_globals, i64 960), align 8, !tbaa !9
  %.not33 = icmp eq ptr %36, null
  br i1 %.not33, label %37, label %.thread.sink.split

37:                                               ; preds = %zend_string_addref.exit
  %38 = load i32, ptr %9, align 4, !tbaa !8
  %39 = and i32 %38, 32
  %.not34 = icmp eq i32 %39, 0
  br i1 %.not34, label %52, label %40

40:                                               ; preds = %37
  %41 = load i32, ptr %0, align 4, !tbaa !51
  %42 = add i32 %41, -1
  %43 = lshr i32 %42, 3
  %44 = zext nneg i32 %43 to i64
  %45 = load i64, ptr getelementptr inbounds nuw (i8, ptr @compiler_globals, i64 528), align 8, !tbaa !68
  %46 = icmp ugt i64 %45, %44
  br i1 %46, label %47, label %52, !prof !52

47:                                               ; preds = %40
  %48 = load ptr, ptr getelementptr inbounds nuw (i8, ptr @compiler_globals, i64 512), align 8, !tbaa !82
  %49 = zext i32 %41 to i64
  %50 = getelementptr inbounds nuw i8, ptr %48, i64 %49
  %51 = load ptr, ptr %50, align 8, !tbaa !53
  %.not35 = icmp eq ptr %51, null
  br i1 %.not35, label %52, label %.thread.sink.split

52:                                               ; preds = %40, %47, %37
  %53 = load ptr, ptr getelementptr inbounds nuw (i8, ptr @executor_globals, i64 464), align 8, !tbaa !50
  %54 = call ptr @zend_hash_find(ptr noundef %53, ptr noundef %1) #10
  %.not.i37 = icmp eq ptr %54, null
  br i1 %.not.i37, label %56, label %zend_hash_find_ptr.exit

zend_hash_find_ptr.exit:                          ; preds = %52
  %55 = load ptr, ptr %54, align 8, !tbaa !8, !nonnull !46, !noundef !46
  br label %.thread.sink.split

56:                                               ; preds = %52
  %57 = load ptr, ptr @spl_autoload_functions, align 8, !tbaa !62
  %58 = call i32 @zend_hash_move_forward_ex(ptr noundef %57, ptr noundef nonnull %3) #10
  call void @llvm.lifetime.end.p0(i64 16, ptr nonnull %4) #10
  %59 = load ptr, ptr @spl_autoload_functions, align 8, !tbaa !62
  %60 = call ptr @zend_hash_get_current_data_ex(ptr noundef %59, ptr noundef nonnull %3) #10
  %.not.i39 = icmp eq ptr %60, null
  br i1 %.not.i39, label %.thread, label %11

.thread.sink.split:                               ; preds = %47, %zend_string_addref.exit, %zend_hash_find_ptr.exit
  %.5.ph = phi ptr [ %55, %zend_hash_find_ptr.exit ], [ null, %zend_string_addref.exit ], [ %51, %47 ]
  call void @llvm.lifetime.end.p0(i64 16, ptr nonnull %4) #10
  br label %.thread

.thread:                                          ; preds = %56, %.thread.sink.split, %6
  %.5 = phi ptr [ null, %6 ], [ %.5.ph, %.thread.sink.split ], [ null, %56 ]
  call void @llvm.lifetime.end.p0(i64 4, ptr nonnull %3) #10
  br label %61

61:                                               ; preds = %2, %.thread
  %.0 = phi ptr [ %.5, %.thread ], [ null, %2 ]
  ret ptr %.0
}